target datalayout = "e-m:e-p270:32:32-p271:32:32-p272:64:64-i64:64-i128:128-f80:128-n8:16:32:64-S128"
target triple = "x86_64-pc-linux-gnu"

%struct.bp_creation_ts_t = type { %struct.bp_dtn_time_t, i64 }
%struct.bp_dtn_time_t = type { i64, %struct.nstime_t }
%struct.nstime_t = type { i64, i32 }
%struct._address = type { i32, i32, ptr, ptr }
%struct._packet_info = type { ptr, ptr, i32, i32, %struct.nstime_t, %struct.nstime_t, %struct.nstime_t, i8, ptr, ptr, ptr, ptr, %struct._address, %struct._address, %struct._address, %struct._address, %struct._address, %struct._address, i32, ptr, i8, [3 x i8], %struct.anon, i32, i32, i32, i32, ptr, i8, ptr, ptr, i16, i16, i32, i32, i16, i32, i32, ptr, ptr, ptr, i8, i8, i16, i16, i16, i32, i16, i16, ptr, ptr, ptr, ptr, ptr, i32, i32 }
%struct.anon = type { i8, [3 x i8] }
%struct.wscbor_chunk_t = type { ptr, i32, i32, i32, ptr, ptr, i32, i8, i64 }

@hf_create_ts_time = internal global i32 0, align 4
@hf_create_ts_seqno = internal global i32 0, align 4
@ett_create_ts = internal global i32 0, align 4

; Function Attrs: null_pointer_is_valid sspstrong uwtable
define internal void @dissect_cbor_timestamp(ptr noundef %0, i32 noundef %1, ptr noundef %2, ptr noundef %3, ptr noundef %4, ptr noundef %5) #2 {
  %7 = alloca ptr, align 8
  %8 = alloca i32, align 4
  %9 = alloca ptr, align 8
  %10 = alloca ptr, align 8
  %11 = alloca ptr, align 8
  %12 = alloca ptr, align 8
  %13 = alloca ptr, align 8
  %14 = alloca ptr, align 8
  %15 = alloca ptr, align 8
  %16 = alloca %struct.bp_dtn_time_t, align 8
  %17 = alloca ptr, align 8
  %18 = alloca ptr, align 8
  store ptr %0, ptr %7, align 8
  store i32 %1, ptr %8, align 4
  store ptr %2, ptr %9, align 8
  store ptr %3, ptr %10, align 8
  store ptr %4, ptr %11, align 8
  store ptr %5, ptr %12, align 8
  call void @llvm.lifetime.start.p0(i64 8, ptr %13) #18
  %19 = load ptr, ptr %7, align 8
  %20 = load i32, ptr %8, align 4
  %21 = load ptr, ptr %10, align 8
  %22 = load ptr, ptr %11, align 8
  %23 = load i32, ptr %22, align 4
  %24 = call ptr @proto_tree_add_item(ptr noundef %19, i32 noundef %20, ptr noundef %21, i32 noundef %23, i32 noundef -1, i32 noundef 0)
  store ptr %24, ptr %13, align 8
  call void @llvm.lifetime.start.p0(i64 8, ptr %14) #18
  %25 = load ptr, ptr %13, align 8
  %26 = load i32, ptr @ett_create_ts, align 4
  %27 = call ptr @proto_item_add_subtree(ptr noundef %25, i32 noundef %26)
  store ptr %27, ptr %14, align 8
  call void @llvm.lifetime.start.p0(i64 8, ptr %15) #18
  %28 = load ptr, ptr %9, align 8
  %29 = getelementptr inbounds nuw %struct._packet_info, ptr %28, i32 0, i32 51
  %30 = load ptr, ptr %29, align 8
  %31 = load ptr, ptr %10, align 8
  %32 = load ptr, ptr %11, align 8
  %33 = call ptr @wscbor_chunk_read(ptr noundef %30, ptr noundef %31, ptr noundef %32)
  store ptr %33, ptr %15, align 8
  %34 = load ptr, ptr %15, align 8
  %35 = call zeroext i1 @wscbor_require_array_size(ptr noundef %34, i64 noundef 2, i64 noundef 2)
  %36 = load ptr, ptr %9, align 8
  %37 = load ptr, ptr %13, align 8
  %38 = load ptr, ptr %15, align 8
  %39 = call i64 @wscbor_chunk_mark_errors(ptr noundef %36, ptr noundef %37, ptr noundef %38)
  %40 = load ptr, ptr %9, align 8
  %41 = getelementptr inbounds nuw %struct._packet_info, ptr %40, i32 0, i32 51
  %42 = load ptr, ptr %41, align 8
  %43 = load ptr, ptr %10, align 8
  %44 = load ptr, ptr %11, align 8
  %45 = load ptr, ptr %15, align 8
  %46 = call zeroext i1 @wscbor_skip_if_errors(ptr noundef %42, ptr noundef %43, ptr noundef %44, ptr noundef %45)
  br i1 %46, label %85, label %47

47:                                               ; preds = %6
  call void @llvm.lifetime.start.p0(i64 24, ptr %16) #18
  %48 = load ptr, ptr %14, align 8
  %49 = load i32, ptr @hf_create_ts_time, align 4
  %50 = load ptr, ptr %9, align 8
  %51 = load ptr, ptr %10, align 8
  %52 = load ptr, ptr %11, align 8
  call void @dissect_dtn_time(ptr noundef %48, i32 noundef %49, ptr noundef %50, ptr noundef %51, ptr noundef %52, ptr noundef %16)
  call void @llvm.lifetime.start.p0(i64 8, ptr %17) #18
  %53 = load ptr, ptr %9, align 8
  %54 = getelementptr inbounds nuw %struct._packet_info, ptr %53, i32 0, i32 51
  %55 = load ptr, ptr %54, align 8
  %56 = load ptr, ptr %10, align 8
  %57 = load ptr, ptr %11, align 8
  %58 = call ptr @wscbor_chunk_read(ptr noundef %55, ptr noundef %56, ptr noundef %57)
  store ptr %58, ptr %17, align 8
  call void @llvm.lifetime.start.p0(i64 8, ptr %18) #18
  %59 = call ptr @wmem_file_scope()
  %60 = load ptr, ptr %17, align 8
  %61 = call ptr @wscbor_require_uint64(ptr noundef %59, ptr noundef %60)
  store ptr %61, ptr %18, align 8
  %62 = load ptr, ptr %14, align 8
  %63 = load i32, ptr @hf_create_ts_seqno, align 4
  %64 = load ptr, ptr %9, align 8
  %65 = load ptr, ptr %10, align 8
  %66 = load ptr, ptr %17, align 8
  %67 = load ptr, ptr %18, align 8
  %68 = call ptr @proto_tree_add_cbor_uint64(ptr noundef %62, i32 noundef %63, ptr noundef %64, ptr noundef %65, ptr noundef %66, ptr noundef %67)
  %69 = load ptr, ptr %12, align 8
  %70 = icmp ne ptr %69, null
  br i1 %70, label %71, label %84

71:                                               ; preds = %47
  %72 = load ptr, ptr %12, align 8
  %73 = getelementptr inbounds nuw %struct.bp_creation_ts_t, ptr %72, i32 0, i32 0
  call void @llvm.memcpy.p0.p0.i64(ptr align 8 %73, ptr align 8 %16, i64 24, i1 false)
  %74 = load ptr, ptr %18, align 8
  %75 = icmp ne ptr %74, null
  br i1 %75, label %76, label %79

76:                                               ; preds = %71
  %77 = load ptr, ptr %18, align 8
  %78 = load i64, ptr %77, align 8
  br label %80

79:                                               ; preds = %71
  br label %80

80:                                               ; preds = %79, %76
  %81 = phi i64 [ %78, %76 ], [ 0, %79 ]
  %82 = load ptr, ptr %12, align 8
  %83 = getelementptr inbounds nuw %struct.bp_creation_ts_t, ptr %82, i32 0, i32 1
  store i64 %81, ptr %83, align 8
  br label %84

84:                                               ; preds = %80, %47
  call void @llvm.lifetime.end.p0(i64 8, ptr %18) #18
  call void @llvm.lifetime.end.p0(i64 8, ptr %17) #18
  call void @llvm.lifetime.end.p0(i64 24, ptr %16) #18
  br label %85

85:                                               ; preds = %84, %6
  %86 = load ptr, ptr %13, align 8
  %87 = load ptr, ptr %11, align 8
  %88 = load i32, ptr %87, align 4
  %89 = load ptr, ptr %15, align 8
  %90 = getelementptr inbounds nuw %struct.wscbor_chunk_t, ptr %89, i32 0, i32 1
  %91 = load i32, ptr %90, align 8
  %92 = sub i32 %88, %91
  call void @proto_item_set_len(ptr noundef %86, i32 noundef %92)
  call void @llvm.lifetime.end.p0(i64 8, ptr %15) #18
  call void @llvm.lifetime.end.p0(i64 8, ptr %14) #18
  call void @llvm.lifetime.end.p0(i64 8, ptr %13) #18
  ret void
}