; Function Attrs: null_pointer_is_valid sspstrong uwtable
define internal fastcc void @dissect_cbor_timestamp(ptr noundef %0, i32 noundef %1, ptr noundef %2, ptr noundef %3, ptr noundef %4, ptr noundef writeonly captures(address_is_null) %5) unnamed_addr #2 {
  %7 = alloca %struct.bp_dtn_time_t, align 8
  %8 = load i32, ptr %4, align 4
  %9 = tail call ptr @proto_tree_add_item(ptr noundef %0, i32 noundef %1, ptr noundef %3, i32 noundef %8, i32 noundef -1, i32 noundef 0)
  %10 = load i32, ptr @ett_create_ts, align 4
  %11 = tail call ptr @proto_item_add_subtree(ptr noundef %9, i32 noundef %10)
  %12 = getelementptr inbounds nuw i8, ptr %2, i64 408
  %13 = load ptr, ptr %12, align 8
  %14 = tail call ptr @wscbor_chunk_read(ptr noundef %13, ptr noundef %3, ptr noundef %4)
  %15 = tail call zeroext i1 @wscbor_require_array_size(ptr noundef %14, i64 noundef 2, i64 noundef 2)
  %16 = tail call i64 @wscbor_chunk_mark_errors(ptr noundef %2, ptr noundef %9, ptr noundef %14)
  %17 = load ptr, ptr %12, align 8
  %18 = tail call zeroext i1 @wscbor_skip_if_errors(ptr noundef %17, ptr noundef %3, ptr noundef %4, ptr noundef %14)
  br i1 %18, label %34, label %19

19:                                               ; preds = %6
  call void @llvm.lifetime.start.p0(i64 24, ptr nonnull %7) #19
  %20 = load i32, ptr @hf_create_ts_time, align 4
  call fastcc void @dissect_dtn_time(ptr noundef %11, i32 noundef %20, ptr noundef %2, ptr noundef %3, ptr noundef %4, ptr noundef nonnull %7)
  %21 = load ptr, ptr %12, align 8
  %22 = call ptr @wscbor_chunk_read(ptr noundef %21, ptr noundef %3, ptr noundef %4)
  %23 = call ptr @wmem_file_scope()
  %24 = call ptr @wscbor_require_uint64(ptr noundef %23, ptr noundef %22)
  %25 = load i32, ptr @hf_create_ts_seqno, align 4
  %26 = call ptr @proto_tree_add_cbor_uint64(ptr noundef %11, i32 noundef %25, ptr noundef %2, ptr noundef %3, ptr noundef %22, ptr noundef %24)
  %.not = icmp eq ptr %5, null
  br i1 %.not, label %33, label %27

27:                                               ; preds = %19
  call void @llvm.memcpy.p0.p0.i64(ptr noundef nonnull align 8 dereferenceable(24) %5, ptr noundef nonnull align 8 dereferenceable(24) %7, i64 24, i1 false)
  %.not37 = icmp eq ptr %24, null
  br i1 %.not37, label %30, label %28

28:                                               ; preds = %27
  %29 = load i64, ptr %24, align 8
  br label %30

30:                                               ; preds = %27, %28
  %31 = phi i64 [ %29, %28 ], [ 0, %27 ]
  %32 = getelementptr inbounds nuw i8, ptr %5, i64 24
  store i64 %31, ptr %32, align 8
  br label %33

33:                                               ; preds = %30, %19
  call void @llvm.lifetime.end.p0(i64 24, ptr nonnull %7) #19
  br label %34

34:                                               ; preds = %33, %6
  %35 = load i32, ptr %4, align 4
  %36 = getelementptr inbounds nuw i8, ptr %14, i64 8
  %37 = load i32, ptr %36, align 8
  %38 = sub i32 %35, %37
  call void @proto_item_set_len(ptr noundef %9, i32 noundef %38)
  ret void
}